target datalayout = "e-m:e-p270:32:32-p271:32:32-p272:64:64-i64:64-i128:128-f80:128-n8:16:32:64-S128"
target triple = "x86_64-unknown-linux-gnu"

; Function Attrs: mustprogress uwtable
define void @_ZN6icu_7512ByteSinkUtil15appendCodePointEiiRNS_8ByteSinkEPNS_5EditsE(i32 noundef %length, i32 noundef %c, ptr noundef nonnull align 8 dereferenceable(8) %sink, ptr noundef %edits) #1 align 2 {
entry:
  %length.addr = alloca i32, align 4
  %c.addr = alloca i32, align 4
  %sink.addr = alloca ptr, align 8
  %edits.addr = alloca ptr, align 8
  %s8 = alloca [4 x i8], align 1
  %s8Length = alloca i32, align 4
  %__uc = alloca i32, align 4
  store i32 %length, ptr %length.addr, align 4
  store i32 %c, ptr %c.addr, align 4
  store ptr %sink, ptr %sink.addr, align 8
  store ptr %edits, ptr %edits.addr, align 8
  store i32 0, ptr %s8Length, align 4
  br label %do.body

do.body:                                          ; preds = %entry
  %0 = load i32, ptr %c.addr, align 4
  store i32 %0, ptr %__uc, align 4
  %1 = load i32, ptr %__uc, align 4
  %cmp = icmp ule i32 %1, 127
  br i1 %cmp, label %if.then, label %if.else

if.then:                                          ; preds = %do.body
  %2 = load i32, ptr %__uc, align 4
  %conv = trunc i32 %2 to i8
  %3 = load i32, ptr %s8Length, align 4
  %inc = add nsw i32 %3, 1
  store i32 %inc, ptr %s8Length, align 4
  %idxprom = sext i32 %3 to i64
  %arrayidx = getelementptr inbounds [4 x i8], ptr %s8, i64 0, i64 %idxprom
  store i8 %conv, ptr %arrayidx, align 1
  br label %if.end43

if.else:                                          ; preds = %do.body
  %4 = load i32, ptr %__uc, align 4
  %cmp1 = icmp ule i32 %4, 2047
  br i1 %cmp1, label %if.then2, label %if.else7

if.then2:                                         ; preds = %if.else
  %5 = load i32, ptr %__uc, align 4
  %shr = lshr i32 %5, 6
  %or = or i32 %shr, 192
  %conv3 = trunc i32 %or to i8
  %6 = load i32, ptr %s8Length, align 4
  %inc4 = add nsw i32 %6, 1
  store i32 %inc4, ptr %s8Length, align 4
  %idxprom5 = sext i32 %6 to i64
  %arrayidx6 = getelementptr inbounds [4 x i8], ptr %s8, i64 0, i64 %idxprom5
  store i8 %conv3, ptr %arrayidx6, align 1
  br label %if.end36

if.else7:                                         ; preds = %if.else
  %7 = load i32, ptr %__uc, align 4
  %cmp8 = icmp ule i32 %7, 65535
  br i1 %cmp8, label %if.then9, label %if.else16

if.then9:                                         ; preds = %if.else7
  %8 = load i32, ptr %__uc, align 4
  %shr10 = lshr i32 %8, 12
  %or11 = or i32 %shr10, 224
  %conv12 = trunc i32 %or11 to i8
  %9 = load i32, ptr %s8Length, align 4
  %inc13 = add nsw i32 %9, 1
  store i32 %inc13, ptr %s8Length, align 4
  %idxprom14 = sext i32 %9 to i64
  %arrayidx15 = getelementptr inbounds [4 x i8], ptr %s8, i64 0, i64 %idxprom14
  store i8 %conv12, ptr %arrayidx15, align 1
  br label %if.end

if.else16:                                        ; preds = %if.else7
  %10 = load i32, ptr %__uc, align 4
  %shr17 = lshr i32 %10, 18
  %or18 = or i32 %shr17, 240
  %conv19 = trunc i32 %or18 to i8
  %11 = load i32, ptr %s8Length, align 4
  %inc20 = add nsw i32 %11, 1
  store i32 %inc20, ptr %s8Length, align 4
  %idxprom21 = sext i32 %11 to i64
  %arrayidx22 = getelementptr inbounds [4 x i8], ptr %s8, i64 0, i64 %idxprom21
  store i8 %conv19, ptr %arrayidx22, align 1
  %12 = load i32, ptr %__uc, align 4
  %shr23 = lshr i32 %12, 12
  %and = and i32 %shr23, 63
  %or24 = or i32 %and, 128
  %conv25 = trunc i32 %or24 to i8
  %13 = load i32, ptr %s8Length, align 4
  %inc26 = add nsw i32 %13, 1
  store i32 %inc26, ptr %s8Length, align 4
  %idxprom27 = sext i32 %13 to i64
  %arrayidx28 = getelementptr inbounds [4 x i8], ptr %s8, i64 0, i64 %idxprom27
  store i8 %conv25, ptr %arrayidx28, align 1
  br label %if.end

if.end:                                           ; preds = %if.else16, %if.then9
  %14 = load i32, ptr %__uc, align 4
  %shr29 = lshr i32 %14, 6
  %and30 = and i32 %shr29, 63
  %or31 = or i32 %and30, 128
  %conv32 = trunc i32 %or31 to i8
  %15 = load i32, ptr %s8Length, align 4
  %inc33 = add nsw i32 %15, 1
  store i32 %inc33, ptr %s8Length, align 4
  %idxprom34 = sext i32 %15 to i64
  %arrayidx35 = getelementptr inbounds [4 x i8], ptr %s8, i64 0, i64 %idxprom34
  store i8 %conv32, ptr %arrayidx35, align 1
  br label %if.end36

if.end36:                                         ; preds = %if.end, %if.then2
  %16 = load i32, ptr %__uc, align 4
  %and37 = and i32 %16, 63
  %or38 = or i32 %and37, 128
  %conv39 = trunc i32 %or38 to i8
  %17 = load i32, ptr %s8Length, align 4
  %inc40 = add nsw i32 %17, 1
  store i32 %inc40, ptr %s8Length, align 4
  %idxprom41 = sext i32 %17 to i64
  %arrayidx42 = getelementptr inbounds [4 x i8], ptr %s8, i64 0, i64 %idxprom41
  store i8 %conv39, ptr %arrayidx42, align 1
  br label %if.end43

if.end43:                                         ; preds = %if.end36, %if.then
  br label %do.end

do.end:                                           ; preds = %if.end43
  %18 = load ptr, ptr %edits.addr, align 8
  %cmp44 = icmp ne ptr %18, null
  br i1 %cmp44, label %if.then45, label %if.end46

if.then45:                                        ; preds = %do.end
  %19 = load ptr, ptr %edits.addr, align 8
  %20 = load i32, ptr %length.addr, align 4
  %21 = load i32, ptr %s8Length, align 4
  call void @_ZN6icu_755Edits10addReplaceEii(ptr noundef nonnull align 8 dereferenceable(232) %19, i32 noundef %20, i32 noundef %21)
  br label %if.end46

if.end46:                                         ; preds = %if.then45, %do.end
  %22 = load ptr, ptr %sink.addr, align 8
  %arraydecay = getelementptr inbounds [4 x i8], ptr %s8, i64 0, i64 0
  %23 = load i32, ptr %s8Length, align 4
  %vtable = load ptr, ptr %22, align 8
  %vfn = getelementptr inbounds ptr, ptr %vtable, i64 2
  %24 = load ptr, ptr %vfn, align 8
  call void %24(ptr noundef nonnull align 8 dereferenceable(8) %22, ptr noundef %arraydecay, i32 noundef %23)
  ret void
}