; Function Attrs: mustprogress uwtable
define void @_ZN6icu_7512ByteSinkUtil15appendCodePointEiiRNS_8ByteSinkEPNS_5EditsE(i32 noundef %length, i32 noundef %c, ptr noundef nonnull align 8 dereferenceable(8) %sink, ptr noundef %edits) local_unnamed_addr #1 align 2 {
entry:
  %s8 = alloca [4 x i8], align 1
  %cmp = icmp ult i32 %c, 128
  br i1 %cmp, label %if.then, label %if.else

if.then:                                          ; preds = %entry
  %conv = trunc i32 %c to i8
  store i8 %conv, ptr %s8, align 1
  br label %do.end

if.else:                                          ; preds = %entry
  %cmp1 = icmp ult i32 %c, 2048
  br i1 %cmp1, label %if.then2, label %if.else7

if.then2:                                         ; preds = %if.else
  %shr = lshr i32 %c, 6
  %0 = trunc i32 %shr to i8
  %conv3 = or disjoint i8 %0, -64
  store i8 %conv3, ptr %s8, align 1
  br label %if.end36

if.else7:                                         ; preds = %if.else
  %cmp8 = icmp ult i32 %c, 65536
  br i1 %cmp8, label %if.then9, label %if.else16

if.then9:                                         ; preds = %if.else7
  %shr10 = lshr i32 %c, 12
  %1 = trunc i32 %shr10 to i8
  %conv12 = or disjoint i8 %1, -32
  br label %if.end

if.else16:                                        ; preds = %if.else7
  %shr17 = lshr i32 %c, 18
  %2 = trunc i32 %shr17 to i8
  %conv19 = or i8 %2, -16
  %shr23 = lshr i32 %c, 12
  %3 = trunc i32 %shr23 to i8
  %4 = and i8 %3, 63
  %conv25 = or disjoint i8 %4, -128
  %arrayidx28 = getelementptr inbounds i8, ptr %s8, i64 1
  store i8 %conv25, ptr %arrayidx28, align 1
  br label %if.end

if.end:                                           ; preds = %if.else16, %if.then9
  %conv19.sink = phi i8 [ %conv12, %if.then9 ], [ %conv19, %if.else16 ]
  %s8Length.0 = phi i32 [ 1, %if.then9 ], [ 2, %if.else16 ]
  store i8 %conv19.sink, ptr %s8, align 1
  %shr29 = lshr i32 %c, 6
  %5 = trunc i32 %shr29 to i8
  %6 = and i8 %5, 63
  %conv32 = or disjoint i8 %6, -128
  %inc33 = add nuw nsw i32 %s8Length.0, 1
  %idxprom34 = zext nneg i32 %s8Length.0 to i64
  %arrayidx35 = getelementptr inbounds [4 x i8], ptr %s8, i64 0, i64 %idxprom34
  store i8 %conv32, ptr %arrayidx35, align 1
  br label %if.end36

if.end36:                                         ; preds = %if.end, %if.then2
  %s8Length.1 = phi i32 [ 1, %if.then2 ], [ %inc33, %if.end ]
  %7 = trunc i32 %c to i8
  %8 = and i8 %7, 63
  %conv39 = or disjoint i8 %8, -128
  %inc40 = add nuw nsw i32 %s8Length.1, 1
  %idxprom41 = zext nneg i32 %s8Length.1 to i64
  %arrayidx42 = getelementptr inbounds [4 x i8], ptr %s8, i64 0, i64 %idxprom41
  store i8 %conv39, ptr %arrayidx42, align 1
  br label %do.end

do.end:                                           ; preds = %if.then, %if.end36
  %s8Length.2 = phi i32 [ 1, %if.then ], [ %inc40, %if.end36 ]
  %cmp44.not = icmp eq ptr %edits, null
  br i1 %cmp44.not, label %if.end46, label %if.then45

if.then45:                                        ; preds = %do.end
  tail call void @_ZN6icu_755Edits10addReplaceEii(ptr noundef nonnull align 8 dereferenceable(232) %edits, i32 noundef %length, i32 noundef %s8Length.2)
  br label %if.end46

if.end46:                                         ; preds = %if.then45, %do.end
  %vtable = load ptr, ptr %sink, align 8
  %vfn = getelementptr inbounds i8, ptr %vtable, i64 16
  %9 = load ptr, ptr %vfn, align 8
  call void %9(ptr noundef nonnull align 8 dereferenceable(8) %sink, ptr noundef nonnull %s8, i32 noundef %s8Length.2)
  ret void
}